; Function Attrs: mustprogress uwtable
define dso_local void @_ZN18DFSRndNumGeneratorC2EP8Sequence(ptr noundef nonnull align 8 dereferenceable(96) %0, ptr noundef %1) unnamed_addr #6 align 2 personality ptr @__gxx_personality_v0 {
  %3 = alloca %"class.std::allocator", align 1
  tail call void @_ZN18AbsRndNumGeneratorC2Ev(ptr noundef nonnull align 8 dereferenceable(8) %0)
  store ptr getelementptr inbounds ({ [13 x ptr] }, ptr @_ZTV18DFSRndNumGenerator, i64 0, i32 0, i64 2), ptr %0, align 8
  %4 = getelementptr inbounds i8, ptr %0, i64 8
  call void @_ZNSaIcEC1Ev(ptr noundef nonnull align 1 dereferenceable(1) %3) #18
  invoke void @_ZNSt7__cxx1112basic_stringIcSt11char_traitsIcESaIcEEC1EPKcRKS3_(ptr noundef nonnull align 8 dereferenceable(32) %4, ptr noundef nonnull @.str.5, ptr noundef nonnull align 1 dereferenceable(1) %3)
          to label %5 unwind label %15

5:                                                ; preds = %2
  call void @_ZNSaIcED1Ev(ptr noundef nonnull align 1 dereferenceable(1) %3) #18
  %6 = getelementptr inbounds i8, ptr %0, i64 40
  store i32 -1, ptr %6, align 8
  %7 = getelementptr inbounds i8, ptr %0, i64 44
  store i32 -1, ptr %7, align 4
  %8 = getelementptr inbounds i8, ptr %0, i64 48
  store i8 0, ptr %8, align 8
  %9 = getelementptr inbounds i8, ptr %0, i64 56
  store ptr %1, ptr %9, align 8
  %10 = getelementptr inbounds i8, ptr %0, i64 64
  store i8 0, ptr %10, align 8
  %11 = getelementptr inbounds i8, ptr %0, i64 72
  call void @llvm.memset.p0.i64(ptr noundef nonnull align 8 dereferenceable(24) %11, i8 0, i64 24, i1 false)
  %12 = invoke noundef i32 @_ZN9CGOptions20max_exhaustive_depthEv()
          to label %13 unwind label %17

13:                                               ; preds = %5
  invoke void @_ZN18DFSRndNumGenerator11init_statesEi(ptr noundef nonnull align 8 dereferenceable(96) %0, i32 noundef %12)
          to label %14 unwind label %17

14:                                               ; preds = %13
  ret void

15:                                               ; preds = %2
  %16 = landingpad { ptr, i32 }
          cleanup
  call void @_ZNSaIcED1Ev(ptr noundef nonnull align 1 dereferenceable(1) %3) #18
  br label %21

17:                                               ; preds = %13, %5
  %18 = landingpad { ptr, i32 }
          cleanup
  %19 = load ptr, ptr %11, align 8
  %.not.i.i.i = icmp eq ptr %19, null
  br i1 %.not.i.i.i, label %_ZNSt6vectorIPN18DFSRndNumGenerator11SearchStateESaIS2_EED2Ev.exit, label %20

20:                                               ; preds = %17
  call void @_ZdlPv(ptr noundef nonnull %19) #19
  br label %_ZNSt6vectorIPN18DFSRndNumGenerator11SearchStateESaIS2_EED2Ev.exit

_ZNSt6vectorIPN18DFSRndNumGenerator11SearchStateESaIS2_EED2Ev.exit: ; preds = %17, %20
  call void @_ZNSt7__cxx1112basic_stringIcSt11char_traitsIcESaIcEED1Ev(ptr noundef nonnull align 8 dereferenceable(32) %4) #18
  br label %21

21:                                               ; preds = %_ZNSt6vectorIPN18DFSRndNumGenerator11SearchStateESaIS2_EED2Ev.exit, %15
  %.pn = phi { ptr, i32 } [ %18, %_ZNSt6vectorIPN18DFSRndNumGenerator11SearchStateESaIS2_EED2Ev.exit ], [ %16, %15 ]
  call void @_ZN18AbsRndNumGeneratorD2Ev(ptr noundef nonnull align 8 dereferenceable(8) %0) #18
  resume { ptr, i32 } %.pn
}